; Function Attrs: mustprogress uwtable
define hidden void @_ZN11proof_utils23permute_unit_resolutionER7obj_refI3app11ast_managerE(ptr noundef nonnull align 8 captures(none) dereferenceable(16) %0) local_unnamed_addr #3 align 2 personality ptr @__gxx_personality_v0 {
  %2 = alloca %class.ref_vector, align 8
  %3 = alloca %class.obj_map.31, align 8
  call void @llvm.lifetime.start.p0(i64 16, ptr nonnull %2) #20
  %4 = getelementptr inbounds nuw i8, ptr %0, i64 8
  %5 = load ptr, ptr %4, align 8, !tbaa !109
  %6 = ptrtoint ptr %5 to i64
  store i64 %6, ptr %2, align 8, !tbaa !12
  %7 = getelementptr inbounds nuw i8, ptr %2, i64 8
  store ptr null, ptr %7, align 8, !tbaa !112
  call void @llvm.lifetime.start.p0(i64 24, ptr nonnull %3) #20
  %8 = invoke noalias noundef ptr @_ZN6memory8allocateEm(i64 noundef 128)
          to label %9 unwind label %44

9:                                                ; preds = %1
  tail call void @llvm.memset.p0.i64(ptr noundef nonnull align 8 dereferenceable(128) %8, i8 0, i64 128, i1 false)
  store ptr %8, ptr %3, align 8, !tbaa !115
  %10 = getelementptr inbounds nuw i8, ptr %3, i64 8
  store i32 8, ptr %10, align 8, !tbaa !118
  %11 = getelementptr inbounds nuw i8, ptr %3, i64 12
  store i32 0, ptr %11, align 4, !tbaa !119
  %12 = getelementptr inbounds nuw i8, ptr %3, i64 16
  store i32 0, ptr %12, align 8, !tbaa !120
  invoke fastcc void @_ZL23permute_unit_resolutionR10ref_vectorI4expr11ast_managerER7obj_mapI3appPS5_ER7obj_refIS5_S1_E(ptr noundef nonnull align 8 dereferenceable(16) %2, ptr noundef nonnull align 8 dereferenceable(24) %3, ptr noundef nonnull align 8 dereferenceable(16) %0)
          to label %13 unwind label %46

13:                                               ; preds = %9
  %14 = load ptr, ptr %3, align 8, !tbaa !115
  %15 = icmp eq ptr %14, null
  br i1 %15, label %_ZN7obj_mapI3appPS0_ED2Ev.exit, label %16

16:                                               ; preds = %13
  invoke void @_ZN6memory10deallocateEPv(ptr noundef nonnull %14)
          to label %_ZN7obj_mapI3appPS0_ED2Ev.exit unwind label %17

17:                                               ; preds = %16
  %18 = landingpad { ptr, i32 }
          catch ptr null
  %19 = extractvalue { ptr, i32 } %18, 0
  call void @__clang_call_terminate(ptr %19) #21
  unreachable

_ZN7obj_mapI3appPS0_ED2Ev.exit:                   ; preds = %13, %16
  call void @llvm.lifetime.end.p0(i64 24, ptr nonnull %3) #20
  %20 = load ptr, ptr %7, align 8, !tbaa !112
  %21 = icmp eq ptr %20, null
  br i1 %21, label %_ZN15ref_vector_coreI4expr19ref_manager_wrapperIS0_11ast_managerEED2Ev.exit, label %_ZNK6vectorIP4exprLb0EjE4sizeEv.exit.i

_ZNK6vectorIP4exprLb0EjE4sizeEv.exit.i:           ; preds = %_ZN7obj_mapI3appPS0_ED2Ev.exit
  %22 = getelementptr inbounds i8, ptr %20, i64 -4
  %23 = load i32, ptr %22, align 4, !tbaa !14
  %24 = zext i32 %23 to i64
  %25 = getelementptr inbounds nuw ptr, ptr %20, i64 %24
  %.not.i = icmp eq i32 %23, 0
  br i1 %.not.i, label %_ZN15ref_vector_coreI4expr19ref_manager_wrapperIS0_11ast_managerEE13dec_range_refEPKPS0_S7_.exit.thread4.i, label %.lr.ph.i.i

.lr.ph.i.i:                                       ; preds = %_ZNK6vectorIP4exprLb0EjE4sizeEv.exit.i, %_ZN15ref_vector_coreI4expr19ref_manager_wrapperIS0_11ast_managerEE7dec_refEPS0_.exit.i.i
  %.06.i.i = phi ptr [ %34, %_ZN15ref_vector_coreI4expr19ref_manager_wrapperIS0_11ast_managerEE7dec_refEPS0_.exit.i.i ], [ %20, %_ZNK6vectorIP4exprLb0EjE4sizeEv.exit.i ]
  %26 = load ptr, ptr %.06.i.i, align 8, !tbaa !35
  %27 = load ptr, ptr %2, align 8, !tbaa !135
  %.not.i.i.i.i.i = icmp eq ptr %26, null
  br i1 %.not.i.i.i.i.i, label %_ZN15ref_vector_coreI4expr19ref_manager_wrapperIS0_11ast_managerEE7dec_refEPS0_.exit.i.i, label %28

28:                                               ; preds = %.lr.ph.i.i
  %29 = getelementptr inbounds nuw i8, ptr %26, i64 8
  %30 = load i32, ptr %29, align 4, !tbaa !137
  %31 = add i32 %30, -1
  store i32 %31, ptr %29, align 4, !tbaa !137
  %32 = icmp eq i32 %31, 0
  br i1 %32, label %33, label %_ZN15ref_vector_coreI4expr19ref_manager_wrapperIS0_11ast_managerEE7dec_refEPS0_.exit.i.i

33:                                               ; preds = %28
  invoke void @_ZN11ast_manager11delete_nodeEP3ast(ptr noundef nonnull align 8 dereferenceable(976) %27, ptr noundef nonnull %26)
          to label %_ZN15ref_vector_coreI4expr19ref_manager_wrapperIS0_11ast_managerEE7dec_refEPS0_.exit.i.i unwind label %41

_ZN15ref_vector_coreI4expr19ref_manager_wrapperIS0_11ast_managerEE7dec_refEPS0_.exit.i.i: ; preds = %33, %28, %.lr.ph.i.i
  %34 = getelementptr inbounds nuw i8, ptr %.06.i.i, i64 8
  %35 = icmp ult ptr %34, %25
  br i1 %35, label %.lr.ph.i.i, label %_ZN15ref_vector_coreI4expr19ref_manager_wrapperIS0_11ast_managerEE13dec_range_refEPKPS0_S7_.exit.i, !llvm.loop !138

_ZN15ref_vector_coreI4expr19ref_manager_wrapperIS0_11ast_managerEE13dec_range_refEPKPS0_S7_.exit.i: ; preds = %_ZN15ref_vector_coreI4expr19ref_manager_wrapperIS0_11ast_managerEE7dec_refEPS0_.exit.i.i
  %.pre.i = load ptr, ptr %7, align 8, !tbaa !112
  %.not.i.i.i = icmp eq ptr %.pre.i, null
  br i1 %.not.i.i.i, label %_ZN15ref_vector_coreI4expr19ref_manager_wrapperIS0_11ast_managerEED2Ev.exit, label %_ZN15ref_vector_coreI4expr19ref_manager_wrapperIS0_11ast_managerEE13dec_range_refEPKPS0_S7_.exit.thread4.i

_ZN15ref_vector_coreI4expr19ref_manager_wrapperIS0_11ast_managerEE13dec_range_refEPKPS0_S7_.exit.thread4.i: ; preds = %_ZN15ref_vector_coreI4expr19ref_manager_wrapperIS0_11ast_managerEE13dec_range_refEPKPS0_S7_.exit.i, %_ZNK6vectorIP4exprLb0EjE4sizeEv.exit.i
  %36 = phi ptr [ %.pre.i, %_ZN15ref_vector_coreI4expr19ref_manager_wrapperIS0_11ast_managerEE13dec_range_refEPKPS0_S7_.exit.i ], [ %20, %_ZNK6vectorIP4exprLb0EjE4sizeEv.exit.i ]
  %37 = getelementptr inbounds i8, ptr %36, i64 -8
  invoke void @_ZN6memory10deallocateEPv(ptr noundef nonnull %37)
          to label %_ZN15ref_vector_coreI4expr19ref_manager_wrapperIS0_11ast_managerEED2Ev.exit unwind label %38

38:                                               ; preds = %_ZN15ref_vector_coreI4expr19ref_manager_wrapperIS0_11ast_managerEE13dec_range_refEPKPS0_S7_.exit.thread4.i
  %39 = landingpad { ptr, i32 }
          catch ptr null
  %40 = extractvalue { ptr, i32 } %39, 0
  call void @__clang_call_terminate(ptr %40) #21
  unreachable

41:                                               ; preds = %33
  %42 = landingpad { ptr, i32 }
          catch ptr null
  %43 = extractvalue { ptr, i32 } %42, 0
  call void @__clang_call_terminate(ptr %43) #21
  unreachable

_ZN15ref_vector_coreI4expr19ref_manager_wrapperIS0_11ast_managerEED2Ev.exit: ; preds = %_ZN7obj_mapI3appPS0_ED2Ev.exit, %_ZN15ref_vector_coreI4expr19ref_manager_wrapperIS0_11ast_managerEE13dec_range_refEPKPS0_S7_.exit.i, %_ZN15ref_vector_coreI4expr19ref_manager_wrapperIS0_11ast_managerEE13dec_range_refEPKPS0_S7_.exit.thread4.i
  call void @llvm.lifetime.end.p0(i64 16, ptr nonnull %2) #20
  ret void

44:                                               ; preds = %1
  %45 = landingpad { ptr, i32 }
          cleanup
  br label %48

46:                                               ; preds = %9
  %47 = landingpad { ptr, i32 }
          cleanup
  call void @_ZN7obj_mapI3appPS0_ED2Ev(ptr noundef nonnull align 8 dereferenceable(24) %3) #20
  br label %48

48:                                               ; preds = %46, %44
  %.pn = phi { ptr, i32 } [ %47, %46 ], [ %45, %44 ]
  call void @llvm.lifetime.end.p0(i64 24, ptr nonnull %3) #20
  call void @_ZN15ref_vector_coreI4expr19ref_manager_wrapperIS0_11ast_managerEED2Ev(ptr noundef nonnull align 8 dereferenceable(16) %2) #20
  call void @llvm.lifetime.end.p0(i64 16, ptr nonnull %2) #20
  resume { ptr, i32 } %.pn
}